target datalayout = "e-m:e-p270:32:32-p271:32:32-p272:64:64-i64:64-i128:128-f80:128-n8:16:32:64-S128"
target triple = "x86_64-pc-linux-gnu"

%struct._fileset = type { ptr, ptr }
%struct._GList = type { ptr, ptr, ptr }
%struct._fileset_entry = type { ptr, ptr, i64, i64, i64, i32 }

@set = internal global %struct._fileset zeroinitializer, align 8

; Function Attrs: nounwind uwtable
define internal ptr @fileset_get_current() #0 {
  %1 = alloca ptr, align 8
  %2 = alloca ptr, align 8
  %3 = alloca ptr, align 8
  %4 = load ptr, ptr @set, align 8
  %5 = call ptr @g_list_first(ptr noundef %4)
  store ptr %5, ptr %2, align 8
  br label %6

6:                                                ; preds = %27, %0
  %7 = load ptr, ptr %2, align 8
  %8 = icmp ne ptr %7, null
  br i1 %8, label %9, label %29

9:                                                ; preds = %6
  %10 = load ptr, ptr %2, align 8
  %11 = getelementptr inbounds %struct._GList, ptr %10, i32 0, i32 0
  %12 = load ptr, ptr %11, align 8
  store ptr %12, ptr %3, align 8
  %13 = load ptr, ptr %3, align 8
  %14 = getelementptr inbounds %struct._fileset_entry, ptr %13, i32 0, i32 5
  %15 = load i32, ptr %14, align 8
  %16 = icmp ne i32 %15, 0
  br i1 %16, label %17, label %19

17:                                               ; preds = %9
  %18 = load ptr, ptr %2, align 8
  store ptr %18, ptr %1, align 8
  br label %30

19:                                               ; preds = %9
  %20 = load ptr, ptr %2, align 8
  %21 = icmp ne ptr %20, null
  br i1 %21, label %22, label %26

22:                                               ; preds = %19
  %23 = load ptr, ptr %2, align 8
  %24 = getelementptr inbounds %struct._GList, ptr %23, i32 0, i32 1
  %25 = load ptr, ptr %24, align 8
  br label %27

26:                                               ; preds = %19
  br label %27

27:                                               ; preds = %26, %22
  %28 = phi ptr [ %25, %22 ], [ null, %26 ]
  store ptr %28, ptr %2, align 8
  br label %6, !llvm.loop !8

29:                                               ; preds = %6
  store ptr null, ptr %1, align 8
  br label %30

30:                                               ; preds = %29, %17
  %31 = load ptr, ptr %1, align 8
  ret ptr %31
}

; Function Attrs: nounwind uwtable
define hidden ptr @fileset_get_previous() #0 {
  %1 = alloca ptr, align 8
  %2 = alloca ptr, align 8
  %3 = call ptr @fileset_get_current()
  store ptr %3, ptr %2, align 8
  %4 = load ptr, ptr %2, align 8
  %5 = icmp eq ptr %4, null
  br i1 %5, label %6, label %7

6:                                                ; preds = %0
  store ptr null, ptr %1, align 8
  br label %24

7:                                                ; preds = %0
  %8 = load ptr, ptr %2, align 8
  %9 = icmp ne ptr %8, null
  br i1 %9, label %10, label %14

10:                                               ; preds = %7
  %11 = load ptr, ptr %2, align 8
  %12 = getelementptr inbounds %struct._GList, ptr %11, i32 0, i32 2
  %13 = load ptr, ptr %12, align 8
  br label %15

14:                                               ; preds = %7
  br label %15

15:                                               ; preds = %14, %10
  %16 = phi ptr [ %13, %10 ], [ null, %14 ]
  store ptr %16, ptr %2, align 8
  %17 = load ptr, ptr %2, align 8
  %18 = icmp eq ptr %17, null
  br i1 %18, label %19, label %20

19:                                               ; preds = %15
  store ptr null, ptr %1, align 8
  br label %24

20:                                               ; preds = %15
  %21 = load ptr, ptr %2, align 8
  %22 = getelementptr inbounds %struct._GList, ptr %21, i32 0, i32 0
  %23 = load ptr, ptr %22, align 8
  store ptr %23, ptr %1, align 8
  br label %24

24:                                               ; preds = %20, %19, %6
  %25 = load ptr, ptr %1, align 8
  ret ptr %25
}