; Function Attrs: nounwind uwtable
define hidden ptr @fileset_get_previous() local_unnamed_addr #0 {
  %1 = load ptr, ptr @set.0, align 8
  %2 = tail call ptr @g_list_first(ptr noundef %1) #9
  %.not9.i = icmp eq ptr %2, null
  br i1 %.not9.i, label %fileset_get_current.exit.thread, label %.lr.ph.i

.lr.ph.i:                                         ; preds = %0, %6
  %.0710.i = phi ptr [ %8, %6 ], [ %2, %0 ]
  %3 = load ptr, ptr %.0710.i, align 8
  %4 = getelementptr inbounds nuw i8, ptr %3, i64 40
  %5 = load i32, ptr %4, align 8
  %.not8.i = icmp eq i32 %5, 0
  br i1 %.not8.i, label %6, label %fileset_get_current.exit

6:                                                ; preds = %.lr.ph.i
  %7 = getelementptr inbounds nuw i8, ptr %.0710.i, i64 8
  %8 = load ptr, ptr %7, align 8
  %.not.i = icmp eq ptr %8, null
  br i1 %.not.i, label %fileset_get_current.exit.thread, label %.lr.ph.i, !llvm.loop !8

fileset_get_current.exit:                         ; preds = %.lr.ph.i
  %9 = getelementptr inbounds nuw i8, ptr %.0710.i, i64 16
  %10 = load ptr, ptr %9, align 8
  %11 = icmp eq ptr %10, null
  br i1 %11, label %fileset_get_current.exit.thread, label %12

12:                                               ; preds = %fileset_get_current.exit
  %13 = load ptr, ptr %10, align 8
  br label %fileset_get_current.exit.thread

fileset_get_current.exit.thread:                  ; preds = %6, %0, %fileset_get_current.exit, %12
  %.0 = phi ptr [ %13, %12 ], [ null, %fileset_get_current.exit ], [ null, %0 ], [ null, %6 ]
  ret ptr %.0
}